Certificate:
    Data:
        Version: 1 (0x0)
        Serial Number:
            f9:41:cb:ad:b5:b6:d2:0a
    Signature Algorithm: sha1WithRSAEncryption
        Issuer: C=US, ST=California, O=Apple Inc., OU=Apple Certification Authority, CN=Apple iPhone Certification Authority
        Validity
            Not Before: Jun 26 14:13:49 2014 GMT
            Not After : Jun 24 14:13:49 2021 GMT
        Subject: C=US, ST=California, L=Cupertino, O=Apple Inc., OU=Apple FairPlay, CN=Apple FairPlay Certification Authority
        Subject Public Key Info:
            Public Key Algorithm: rsaEncryption
                Public-Key: (1024 bit)
                Modulus:
                    00:e3:58:80:b6:0f:89:7d:a2:4f:f6:7e:f1:c4:eb:
                    e9:bd:dc:01:54:2d:dd:9c:91:8e:0d:5d:df:7a:2b:
                    c5:d8:82:9f:66:dc:18:97:38:27:1a:c8:8d:4c:b3:
                    bf:5d:cc:96:e0:a1:bd:d1:4d:ad:77:ea:e9:d9:da:
                    22:8c:b7:58:1b:a5:dc:de:b8:80:64:33:a0:51:be:
                    fa:2c:f4:5d:16:c4:f5:30:a2:01:5f:6a:3e:fc:dc:
                    4b:1d:63:38:85:69:3f:2f:bc:61:ec:c1:ec:33:0b:
                    e6:67:24:9c:ad:a2:fa:4a:eb:61:5e:02:79:26:af:
                    6a:2a:6d:4a:4d:32:b3:e4:17
                Exponent: 65537 (0x10001)
    Signature Algorithm: sha1WithRSAEncryption
         8f:36:fa:2a:58:f2:e2:4d:74:31:b7:35:8b:1e:be:4c:ec:55:
         6d:14:14:8b:5c:ad:0e:72:cd:d4:c9:f8:f4:c5:14:fd:b8:93:
         c5:46:0a:b4:95:92:7a:bc:33:90:9c:37:ff:a5:fb:b2:7e:d9:
         70:a8:1a:aa:1b:38:bf:b1:34:17:af:be:fd:2d:2b:a1:e4:66:
         6b:96:19:6b:92:55:2a:91:4b:b0:e8:21:95:e1:77:73:79:d1:
         45:6d:9e:80:df:11:34:d3:8a:3c:55:c7:21:38:9c:d3:77:01:
         3c:fe:15:20:0b:2e:26:02:f1:e3:c8:e2:ab:15:6b:27:2a:3d:
         13:70:ec:88:de:e1:e4:b6:d4:ac:a0:3d:68:0b:08:21:57:da:
         c6:32:a8:5b:2c:58:90:48:d8:92:2f:03:09:e0:2e:9c:f4:cb:
         69:6d:24:0c:c4:87:6e:29:f7:e0:9a:72:98:04:39:c4:38:23:
         a7:0c:ff:36:5c:20:78:be:18:ec:99:74:f3:c9:3e:7c:47:02:
         9d:41:6e:a2:4d:e0:a2:c4:f2:8d:ae:2a:be:55:08:c2:68:f8:
         6f:cb:fb:47:54:20:d9:35:97:32:da:86:0d:bc:ae:04:b3:bc:
         25:79:85:10:0c:0b:2f:82:09:f9:1c:5e:03:c7:16:6e:ec:11:
         43:bc:85:bd
-----BEGIN CERTIFICATE-----
MIIDHTCCAgUCCQD5QcuttbbSCjANBgkqhkiG9w0BAQUFADCBjjELMAkGA1UEBhMC
VVMxEzARBgNVBAgMCkNhbGlmb3JuaWExEzARBgNVBAoMCkFwcGxlIEluYy4xJjAk
BgNVBAsMHUFwcGxlIENlcnRpZmljYXRpb24gQXV0aG9yaXR5MS0wKwYDVQQDDCRB
cHBsZSBpUGhvbmUgQ2VydGlmaWNhdGlvbiBBdXRob3JpdHkwHhcNMTQwNjI2MTQx
MzQ5WhcNMjEwNjI0MTQxMzQ5WjCBlTELMAkGA1UEBhMCVVMxEzARBgNVBAgMCkNh
bGlmb3JuaWExEjAQBgNVBAcMCUN1cGVydGlubzETMBEGA1UECgwKQXBwbGUgSW5j
LjEXMBUGA1UECwwOQXBwbGUgRmFpclBsYXkxLzAtBgNVBAMMJkFwcGxlIEZhaXJQ
bGF5IENlcnRpZmljYXRpb24gQXV0aG9yaXR5MIGfMA0GCSqGSIb3DQEBAQUAA4GN
ADCBiQKBgQDjWIC2D4l9ok/2fvHE6+m93AFULd2ckY4NXd96K8XYgp9m3BiXOCca
yI1Ms79dzJbgob3RTa136unZ2iKMt1gbpdzeuIBkM6BRvvos9F0WxPUwogFfaj78
3EsdYziFaT8vvGHswewzC+ZnJJytovpK62FeAnkmr2oqbUpNMrPkFwIDAQABMA0G
CSqGSIb3DQEBBQUAA4IBAQCPNvoqWPLiTXQxtzWLHr5M7FVtFBSLXK0Ocs3Uyfj0
xRT9uJPFRgq0lZJ6vDOQnDf/pfuyftlwqBqqGzi/sTQXr779LSuh5GZrlhlrklUq
kUuw6CGV4XdzedFFbZ6A3xE004o8VcchOJzTdwE8/hUgCy4mAvHjyOKrFWsnKj0T
cOyI3uHkttSsoD1oCwghV9rGMqhbLFiQSNiSLwMJ4C6c9MtpbSQMxIduKffgmnKY
BDnEOCOnDP82XCB4vhjsmXTzyT58RwKdQW6iTeCixPKNriq+VQjCaPhvy/tHVCDZ
NZcy2oYNvK4Es7wleYUQDAsvggn5HF4DxxZu7BFDvIW9
-----END CERTIFICATE-----
Certificate:
    Data:
        Version: 1 (0x0)
        Serial Number:
            b6:df:af:82:16:d1:74:71
    Signature Algorithm: sha1WithRSAEncryption
        Issuer: C=US, ST=California, L=Cupertino, O=Apple Inc., OU=Apple Certification Authority, CN=Apple Root CA
        Validity
            Not Before: Jun 26 13:57:14 2014 GMT
            Not After : Jun 22 13:57:14 2029 GMT
        Subject: C=US, ST=California, O=Apple Inc., OU=Apple Certification Authority, CN=Apple iPhone Certification Authority
        Subject Public Key Info:
            Public Key Algorithm: rsaEncryption
                Public-Key: (2048 bit)
                Modulus:
                    00:ec:1d:1e:63:56:33:86:e8:c7:e4:df:7a:c3:5f:
                    c6:43:3e:59:e2:df:5a:d6:d8:64:4a:89:18:b9:df:
                    2a:2f:ac:6a:b6:fd:ce:47:cc:d5:1b:36:39:61:b5:
                    ec:16:97:dc:a7:35:d8:0a:9d:f4:78:c9:57:64:24:
                    9d:df:0e:84:42:bc:e3:e7:78:c8:75:10:51:67:90:
                    7a:bd:1c:47:c6:35:c2:af:6d:d3:63:df:72:12:ec:
                    4d:d2:36:92:1c:98:1c:2d:99:89:73:67:fa:04:dd:
                    9a:80:24:a7:97:a1:f4:1c:b2:64:4d:d9:c5:ae:be:
                    8a:b8:b7:7c:ab:ff:de:f9:d0:23:eb:46:a3:84:51:
                    b4:21:fe:f3:fb:d5:c2:c0:0b:71:2b:f8:0e:91:67:
                    96:42:08:9b:a9:83:0f:1e:2b:b9:b4:0f:bb:47:f5:
                    f6:0f:9d:1c:9d:82:d2:81:ea:2f:3f:47:f6:42:f7:
                    4d:a2:6b:f4:18:7e:b4:60:8f:72:1b:7c:ba:15:6d:
                    97:76:ae:06:b2:7b:9b:46:fb:02:4c:d3:f2:d8:8f:
                    1c:55:ab:a2:9b:cd:a8:44:e2:aa:1c:b1:69:9d:3f:
                    ad:ef:35:a2:b9:aa:44:8d:b9:49:3c:17:88:32:ca:
                    bd:3d:f3:fa:36:0e:5e:32:99:6f:fd:2f:e3:ad:6d:
                    16:d5
                Exponent: 65537 (0x10001)
    Signature Algorithm: sha1WithRSAEncryption
         80:08:50:e3:66:01:29:e7:9b:de:5a:74:0b:9b:27:01:18:64:
         c0:39:75:48:88:9d:14:0a:82:c1:c2:e5:23:e5:cd:47:95:33:
         bc:a2:8f:7f:60:f5:7d:08:fe:ff:9e:73:0e:db:47:4f:f0:a6:
         7b:83:cd:c8:64:89:8d:31:11:b0:37:8c:97:c3:20:5d:06:cf:
         d7:33:b6:31:0b:3d:10:cd:30:b2:85:16:d5:4b:14:07:b9:45:
         e4:35:c2:16:2f:c8:d8:a2:7e:ef:3c:4b:9b:f0:52:26:ab:db:
         78:ec:66:05:0a:7b:77:b2:7b:5a:00:68:43:17:45:b1:0f:3a:
         89:2a:bc:2d:52:b0:df:56:de:74:04:7a:f1:d1:54:b2:21:7b:
         7f:2a:67:db:8c:99:e8:c1:2d:6b:b7:46:c9:39:f9:e4:3c:23:
         29:bb:a9:10:e6:04:e8:ab:1e:92:a0:90:60:b2:9f:f2:86:28:
         79:1d:19:be:3a:91:0f:c5:aa:95:cd:93:32:7b:ec:62:db:7f:
         da:e9:31:f7:47:01:ad:1d:97:c9:9d:1a:65:33:69:07:e2:00:
         c8:d9:89:d0:8b:7c:aa:ef:8d:e0:1e:d0:4e:36:83:81:78:b2:
         04:18:00:70:63:e7:e9:42:60:2b:68:ee:48:2d:d9:ff:fb:ff:
         36:df:31:38
-----BEGIN CERTIFICATE-----
MIIDlzCCAn8CCQC236+CFtF0cTANBgkqhkiG9w0BAQUFADCBizELMAkGA1UEBhMC
VVMxEzARBgNVBAgMCkNhbGlmb3JuaWExEjAQBgNVBAcMCUN1cGVydGlubzETMBEG
A1UECgwKQXBwbGUgSW5jLjEmMCQGA1UECwwdQXBwbGUgQ2VydGlmaWNhdGlvbiBB
dXRob3JpdHkxFjAUBgNVBAMMDUFwcGxlIFJvb3QgQ0EwHhcNMTQwNjI2MTM1NzE0
WhcNMjkwNjIyMTM1NzE0WjCBjjELMAkGA1UEBhMCVVMxEzARBgNVBAgMCkNhbGlm
b3JuaWExEzARBgNVBAoMCkFwcGxlIEluYy4xJjAkBgNVBAsMHUFwcGxlIENlcnRp
ZmljYXRpb24gQXV0aG9yaXR5MS0wKwYDVQQDDCRBcHBsZSBpUGhvbmUgQ2VydGlm
aWNhdGlvbiBBdXRob3JpdHkwggEiMA0GCSqGSIb3DQEBAQUAA4IBDwAwggEKAoIB
AQDsHR5jVjOG6Mfk33rDX8ZDPlni31rW2GRKiRi53yovrGq2/c5HzNUbNjlhtewW
l9ynNdgKnfR4yVdkJJ3fDoRCvOPneMh1EFFnkHq9HEfGNcKvbdNj33IS7E3SNpIc
mBwtmYlzZ/oE3ZqAJKeXofQcsmRN2cWuvoq4t3yr/9750CPrRqOEUbQh/vP71cLA
C3Er+A6RZ5ZCCJupgw8eK7m0D7tH9fYPnRydgtKB6i8/R/ZC902ia/QYfrRgj3Ib
fLoVbZd2rgaye5tG+wJM0/LYjxxVq6KbzahE4qocsWmdP63vNaK5qkSNuUk8F4gy
yr098/o2Dl4ymW/9L+OtbRbVAgMBAAEwDQYJKoZIhvcNAQEFBQADggEBAIAIUONm
ASnnm95adAubJwEYZMA5dUiInRQKgsHC5SPlzUeVM7yij39g9X0I/v+ecw7bR0/w
pnuDzchkiY0xEbA3jJfDIF0Gz9cztjELPRDNMLKFFtVLFAe5ReQ1whYvyNiifu88
S5vwUiar23jsZgUKe3eye1oAaEMXRbEPOokqvC1SsN9W3nQEevHRVLIhe38qZ9uM
mejBLWu3Rsk5+eQ8Iym7qRDmBOirHpKgkGCyn/KGKHkdGb46kQ/FqpXNkzJ77GLb
f9rpMfdHAa0dl8mdGmUzaQfiAMjZidCLfKrvjeAe0E42g4F4sgQYAHBj5+lCYCto
7kgt2f/7/zbfMTg=
-----END CERTIFICATE-----
Certificate:
    Data:
        Version: 3 (0x2)
        Serial Number:
            e2:76:9d:a8:1d:16:c5:ab
    Signature Algorithm: sha1WithRSAEncryption
        Issuer: C=US, ST=California, L=Cupertino, O=Apple Inc., OU=Apple Certification Authority, CN=Apple Root CA
        Validity
            Not Before: Jun 26 13:42:05 2014 GMT
            Not After : Jun 19 13:42:05 2043 GMT
        Subject: C=US, ST=California, L=Cupertino, O=Apple Inc., OU=Apple Certification Authority, CN=Apple Root CA
        Subject Public Key Info:
            Public Key Algorithm: rsaEncryption
                Public-Key: (2048 bit)
                Modulus:
                    00:b8:70:48:6a:76:45:eb:c9:1f:9e:58:94:10:2b:
                    3f:72:b6:f4:1a:86:51:5e:ad:06:6a:9f:1b:d2:a7:
                    41:e5:ce:19:4c:7d:cb:15:5c:a7:04:fb:97:4f:02:
                    53:47:4c:f8:5a:92:df:ca:55:ff:9f:f4:cb:d0:04:
                    f4:9c:c9:53:79:d1:7d:d9:82:90:86:68:e1:a2:b1:
                    d9:85:dc:da:21:11:39:69:aa:35:d2:01:1f:93:8e:
                    d8:cf:62:fe:92:76:ec:90:e1:31:ed:30:ce:f8:85:
                    fc:dd:e4:7d:d6:0d:f7:39:3b:9f:f7:32:35:54:31:
                    4e:0d:b7:6f:3b:54:17:01:b7:49:ec:46:90:7b:d4:
                    b5:ad:07:78:2c:8a:ac:d4:2d:ab:99:bf:16:65:45:
                    df:8e:33:f4:55:08:db:4d:af:67:2c:59:be:60:5b:
                    3b:6c:6b:5b:c7:39:17:47:cb:56:a3:dc:2e:0f:7b:
                    e8:b0:18:f1:76:fa:d7:e3:68:f6:12:af:26:91:41:
                    51:28:63:ed:2b:69:bc:cf:5e:59:a6:4b:ce:25:f4:
                    ac:1e:77:c5:b4:c1:c9:94:df:1a:0c:9c:f8:8a:0d:
                    50:85:85:06:4e:19:ab:9a:46:90:c0:f4:9d:51:33:
                    d6:e9:db:4c:ed:dd:dd:6b:6f:8f:76:ca:5c:b6:d2:
                    e0:03
                Exponent: 65537 (0x10001)
        X509v3 extensions:
            X509v3 Subject Key Identifier: 
                D3:82:65:64:86:07:A5:CD:D1:FB:36:DA:82:17:FD:EF:0A:03:E9:B0
            X509v3 Authority Key Identifier: 
                keyid:D3:82:65:64:86:07:A5:CD:D1:FB:36:DA:82:17:FD:EF:0A:03:E9:B0

            X509v3 Basic Constraints: 
                CA:TRUE
    Signature Algorithm: sha1WithRSAEncryption
         7d:a9:19:12:82:46:f0:1a:cb:69:9a:5e:8d:65:55:96:de:5c:
         fc:22:76:81:9a:5f:5f:9d:2e:78:0a:d0:b9:55:70:4c:0d:5f:
         c2:4a:99:57:f9:be:ef:8a:66:12:d0:ef:b2:23:1b:93:b5:14:
         23:06:76:1f:4e:71:44:76:65:14:0e:c9:39:3a:0f:be:4b:c1:
         66:21:c8:b4:f1:5b:f9:ab:61:44:f9:4d:34:b1:fc:74:8d:a0:
         bf:5d:f6:10:e8:04:6b:54:5f:b2:66:e0:11:68:39:db:3d:79:
         73:13:cf:d7:39:86:35:81:2b:8a:14:d5:b3:c1:c1:61:9f:c6:
         e3:98:47:32:3b:e4:ef:92:8b:ac:ed:0b:bf:cc:e9:89:5c:bb:
         32:88:96:ac:b7:bd:dc:ba:0e:e8:30:14:ba:11:57:cf:c1:c9:
         43:21:15:5a:1e:68:35:ba:8c:f0:cb:89:d0:44:eb:0a:7a:97:
         5d:c0:a3:51:57:6e:a6:61:49:8b:1b:cb:aa:31:d6:fe:a2:36:
         38:2e:9c:7b:7f:2a:40:95:ba:df:01:f2:34:41:64:3e:9c:46:
         76:64:d2:b1:96:7c:63:6a:12:ae:73:6c:ec:da:6a:87:1a:d0:
         39:5c:61:28:bd:f1:3c:46:80:3b:fa:3d:9d:d3:51:3d:72:e1:
         3a:0b:1c:fe
-----BEGIN CERTIFICATE-----
MIID6zCCAtOgAwIBAgIJAOJ2nagdFsWrMA0GCSqGSIb3DQEBBQUAMIGLMQswCQYD
VQQGEwJVUzETMBEGA1UECAwKQ2FsaWZvcm5pYTESMBAGA1UEBwwJQ3VwZXJ0aW5v
MRMwEQYDVQQKDApBcHBsZSBJbmMuMSYwJAYDVQQLDB1BcHBsZSBDZXJ0aWZpY2F0
aW9uIEF1dGhvcml0eTEWMBQGA1UEAwwNQXBwbGUgUm9vdCBDQTAeFw0xNDA2MjYx
MzQyMDVaFw00MzA2MTkxMzQyMDVaMIGLMQswCQYDVQQGEwJVUzETMBEGA1UECAwK
Q2FsaWZvcm5pYTESMBAGA1UEBwwJQ3VwZXJ0aW5vMRMwEQYDVQQKDApBcHBsZSBJ
bmMuMSYwJAYDVQQLDB1BcHBsZSBDZXJ0aWZpY2F0aW9uIEF1dGhvcml0eTEWMBQG
A1UEAwwNQXBwbGUgUm9vdCBDQTCCASIwDQYJKoZIhvcNAQEBBQADggEPADCCAQoC
ggEBALhwSGp2RevJH55YlBArP3K29BqGUV6tBmqfG9KnQeXOGUx9yxVcpwT7l08C
U0dM+FqS38pV/5/0y9AE9JzJU3nRfdmCkIZo4aKx2YXc2iEROWmqNdIBH5OO2M9i
/pJ27JDhMe0wzviF/N3kfdYN9zk7n/cyNVQxTg23bztUFwG3SexGkHvUta0HeCyK
rNQtq5m/FmVF344z9FUI202vZyxZvmBbO2xrW8c5F0fLVqPcLg976LAY8Xb61+No
9hKvJpFBUShj7StpvM9eWaZLziX0rB53xbTByZTfGgyc+IoNUIWFBk4Zq5pGkMD0
nVEz1unbTO3d3Wtvj3bKXLbS4AMCAwEAAaNQME4wHQYDVR0OBBYEFNOCZWSGB6XN
0fs22oIX/e8KA+mwMB8GA1UdIwQYMBaAFNOCZWSGB6XN0fs22oIX/e8KA+mwMAwG
A1UdEwQFMAMBAf8wDQYJKoZIhvcNAQEFBQADggEBAH2pGRKCRvAay2maXo1lVZbe
XPwidoGaX1+dLngK0LlVcEwNX8JKmVf5vu+KZhLQ77IjG5O1FCMGdh9OcUR2ZRQO
yTk6D75LwWYhyLTxW/mrYUT5TTSx/HSNoL9d9hDoBGtUX7Jm4BFoOds9eXMTz9c5
hjWBK4oU1bPBwWGfxuOYRzI75O+Si6ztC7/M6YlcuzKIlqy3vdy6DugwFLoRV8/B
yUMhFVoeaDW6jPDLidBE6wp6l13Ao1FXbqZhSYsby6ox1v6iNjgunHt/KkCVut8B
8jRBZD6cRnZk0rGWfGNqEq5zbOzaaoca0DlcYSi98TxGgDv6PZ3TUT1y4ToLHP4=
-----END CERTIFICATE-----