Certificate:
    Data:
        Version: 3 (0x2)
        Serial Number: 1 (0x1)
        Signature Algorithm: sha1WithRSAEncryption
        Issuer: C=US, O=Apple Inc., OU=Apple Certification Authority, CN=[TEST] Apple iPhone Certification Authority
        Validity
            Not Before: Mar 21 06:20:50 2007 GMT
            Not After : Mar 12 06:20:50 2022 GMT
        Subject: C=US, O=Apple Inc., OU=Apple iPhone, CN=[TEST] Apple iPhone Device CA
        Subject Public Key Info:
            Public Key Algorithm: rsaEncryption
            RSA Public Key: (1024 bit)
                Modulus (1024 bit):
                    00:d7:60:52:2a:fa:93:52:dc:db:ae:92:6b:d6:ac:
                    59:17:1f:9a:20:ed:34:ae:c2:15:e8:e3:f0:3b:63:
                    84:d8:6d:8d:02:65:74:e6:62:18:27:d1:fc:78:c3:
                    2f:36:83:39:91:9f:3d:32:e0:95:7f:90:3b:ab:47:
                    be:f1:47:85:8c:5d:ab:1c:5c:bb:10:69:47:56:b8:
                    15:bf:34:4a:f0:49:6e:8a:35:4a:4f:47:bb:3e:ea:
                    cc:df:2e:f4:b8:96:16:94:dd:38:f6:f0:82:cf:26:
                    fd:67:a1:73:01:43:d8:25:bd:02:2c:82:89:7c:70:
                    01:68:c2:8a:85:60:84:77:83
                Exponent: 65537 (0x10001)
        X509v3 extensions:
            X509v3 Key Usage: critical
                Digital Signature, Certificate Sign, CRL Sign
            X509v3 Basic Constraints: critical
                CA:TRUE
            X509v3 Subject Key Identifier: 
                38:05:20:A9:3F:C6:79:F4:EC:9A:6F:7F:47:02:5E:6E:A4:79:11:F5
            X509v3 Authority Key Identifier: 
                keyid:45:A2:4C:A9:8A:5B:4A:27:5E:85:A6:4D:05:1C:27:44:A5:87:76:17

            X509v3 CRL Distribution Points: 
                URI:http://www.apple.com/appleca/iphone.crl

    Signature Algorithm: sha1WithRSAEncryption
        8d:be:6b:c8:4e:80:9e:78:86:0c:09:d0:6e:ed:c1:dc:30:f7:
        29:4b:20:4e:2c:6c:b3:24:72:fd:ce:24:34:60:95:30:d7:32:
        61:31:e5:d4:d5:63:aa:3f:89:81:f6:44:ab:71:d0:bc:17:db:
        ab:bc:ec:bb:a4:40:6a:e7:e4:57:c6:28:6f:11:72:fc:0c:51:
        07:31:db:40:54:ee:b5:e6:1e:e3:dc:9b:f9:3c:6a:ba:d8:c3:
        20:f1:dd:49:cb:3a:a6:29:cd:52:f9:f3:f3:18:5e:dd:82:83:
        b8:e8:4e:94:10:7a:1e:11:a0:63:4d:8e:60:4a:1d:45:72:4d:
        a0:ac:1f:b0:98:8b:b4:33:5a:85:60:cf:7f:89:35:62:65:d1:
        1b:48:a4:ec:ca:60:1a:9d:a6:d1:b9:3d:f3:64:a4:67:d1:a5:
        1b:b6:d9:e7:65:75:cb:af:2f:7a:db:d8:a1:f4:f3:09:bf:9a:
        99:1a:34:a6:ed:1f:82:84:0b:b6:a8:68:5d:ec:49:d4:b3:34:
        84:af:cb:a4:d9:00:f0:bc:07:6c:17:e7:95:bb:c3:3d:d9:bb:
        6a:13:1d:34:bd:2f:c1:9a:f1:4d:67:5f:56:33:90:b2:ef:ff:
        27:da:19:60:55:b0:78:c2:8c:34:5b:61:3a:e1:ec:61:92:8b:
        2f:04:9a:c6
-----BEGIN CERTIFICATE-----
MIIDeDCCAmCgAwIBAgIBATANBgkqhkiG9w0BAQUFADCBgDELMAkGA1UEBhMCVVMx
EzARBgNVBAoTCkFwcGxlIEluYy4xJjAkBgNVBAsTHUFwcGxlIENlcnRpZmljYXRp
b24gQXV0aG9yaXR5MTQwMgYDVQQDFCtbVEVTVF0gQXBwbGUgaVBob25lIENlcnRp
ZmljYXRpb24gQXV0aG9yaXR5MB4XDTA3MDMyMTA2MjA1MFoXDTIyMDMxMjA2MjA1
MFowYTELMAkGA1UEBhMCVVMxEzARBgNVBAoTCkFwcGxlIEluYy4xFTATBgNVBAsT
DEFwcGxlIGlQaG9uZTEmMCQGA1UEAxQdW1RFU1RdIEFwcGxlIGlQaG9uZSBEZXZp
Y2UgQ0EwgZ8wDQYJKoZIhvcNAQEBBQADgY0AMIGJAoGBANdgUir6k1Lc266Sa9as
WRcfmiDtNK7CFejj8DtjhNhtjQJldOZiGCfR/HjDLzaDOZGfPTLglX+QO6tHvvFH
hYxdqxxcuxBpR1a4Fb80SvBJboo1Sk9Huz7qzN8u9LiWFpTdOPbwgs8m/WehcwFD
2CW9AiyCiXxwAWjCioVghHeDAgMBAAGjgZ4wgZswDgYDVR0PAQH/BAQDAgGGMA8G
A1UdEwEB/wQFMAMBAf8wHQYDVR0OBBYEFDgFIKk/xnn07Jpvf0cCXm6keRH1MB8G
A1UdIwQYMBaAFEWiTKmKW0onXoWmTQUcJ0Slh3YXMDgGA1UdHwQxMC8wLaAroCmG
J2h0dHA6Ly93d3cuYXBwbGUuY29tL2FwcGxlY2EvaXBob25lLmNybDANBgkqhkiG
9w0BAQUFAAOCAQEAjb5ryE6AnniGDAnQbu3B3DD3KUsgTixssyRy/c4kNGCVMNcy
YTHl1NVjqj+JgfZEq3HQvBfbq7zsu6RAaufkV8YobxFy/AxRBzHbQFTuteYe49yb
+TxqutjDIPHdScs6pinNUvnz8xhe3YKDuOhOlBB6HhGgY02OYEodRXJNoKwfsJiL
tDNahWDPf4k1YmXRG0ik7MpgGp2m0bk982SkZ9GlG7bZ52V1y68vetvYofTzCb+a
mRo0pu0fgoQLtqhoXexJ1LM0hK/LpNkA8LwHbBfnlbvDPdm7ahMdNL0vwZrxTWdf
VjOQsu//J9oZYFWweMKMNFthOuHsYZKLLwSaxg==
-----END CERTIFICATE-----
